target datalayout = "e-m:e-p270:32:32-p271:32:32-p272:64:64-i64:64-i128:128-f80:128-n8:16:32:64-S128"
target triple = "x86_64-unknown-linux-gnu"

%"class.icu_75::UObject" = type { ptr }
%"class.icu_75::UCharsTrieBuilder::UCTLinearMatchNode" = type { %"class.icu_75::StringTrieBuilder::LinearMatchNode", ptr }
%"class.icu_75::StringTrieBuilder::LinearMatchNode" = type { %"class.icu_75::StringTrieBuilder::ValueNode", i32, ptr }
%"class.icu_75::StringTrieBuilder::ValueNode" = type { %"class.icu_75::StringTrieBuilder::Node", i8, i32 }
%"class.icu_75::StringTrieBuilder::Node" = type { %"class.icu_75::UObject", i32, i32 }

@_ZTVN6icu_757UObjectE = external unnamed_addr constant { [5 x ptr] }, align 8
@_ZTVN6icu_7517StringTrieBuilder15LinearMatchNodeE = external unnamed_addr constant { [8 x ptr] }, align 8
@_ZTVN6icu_7517StringTrieBuilder9ValueNodeE = external unnamed_addr constant { [8 x ptr] }, align 8
@_ZTVN6icu_7517StringTrieBuilder4NodeE = external unnamed_addr constant { [8 x ptr] }, align 8

; Function Attrs: mustprogress nounwind uwtable
define linkonce_odr void @_ZN6icu_757UObjectC2Ev(ptr noundef nonnull align 8 dereferenceable(8) %this) unnamed_addr #1 comdat align 2 {
entry:
  %this.addr = alloca ptr, align 8
  store ptr %this, ptr %this.addr, align 8
  %this1 = load ptr, ptr %this.addr, align 8
  store ptr getelementptr inbounds ({ [5 x ptr] }, ptr @_ZTVN6icu_757UObjectE, i32 0, i32 0, i32 2), ptr %this1, align 8
  ret void
}

; Function Attrs: mustprogress nounwind uwtable
define linkonce_odr void @_ZN6icu_7517StringTrieBuilder4NodeD2Ev(ptr noundef nonnull align 8 dereferenceable(16) %this) unnamed_addr #1 comdat align 2 {
entry:
  %this.addr = alloca ptr, align 8
  store ptr %this, ptr %this.addr, align 8
  %this1 = load ptr, ptr %this.addr, align 8
  call void @_ZN6icu_757UObjectD2Ev(ptr noundef nonnull align 8 dereferenceable(8) %this1) #8
  ret void
}

; Function Attrs: mustprogress nounwind uwtable
define linkonce_odr void @_ZN6icu_7517StringTrieBuilder4NodeC2Ei(ptr noundef nonnull align 8 dereferenceable(16) %this, i32 noundef %initialHash) unnamed_addr #1 comdat align 2 {
entry:
  %this.addr = alloca ptr, align 8
  %initialHash.addr = alloca i32, align 4
  store ptr %this, ptr %this.addr, align 8
  store i32 %initialHash, ptr %initialHash.addr, align 4
  %this1 = load ptr, ptr %this.addr, align 8
  call void @_ZN6icu_757UObjectC2Ev(ptr noundef nonnull align 8 dereferenceable(8) %this1) #8
  store ptr getelementptr inbounds ({ [8 x ptr] }, ptr @_ZTVN6icu_7517StringTrieBuilder4NodeE, i32 0, i32 0, i32 2), ptr %this1, align 8
  %hash = getelementptr inbounds %"class.icu_75::StringTrieBuilder::Node", ptr %this1, i32 0, i32 1
  %0 = load i32, ptr %initialHash.addr, align 4
  store i32 %0, ptr %hash, align 8
  %offset = getelementptr inbounds %"class.icu_75::StringTrieBuilder::Node", ptr %this1, i32 0, i32 2
  store i32 0, ptr %offset, align 4
  ret void
}

; Function Attrs: mustprogress nounwind uwtable
define linkonce_odr noundef i32 @_ZNK6icu_7517StringTrieBuilder4Node8hashCodeEv(ptr noundef nonnull align 8 dereferenceable(16) %this) #1 comdat align 2 {
entry:
  %this.addr = alloca ptr, align 8
  store ptr %this, ptr %this.addr, align 8
  %this1 = load ptr, ptr %this.addr, align 8
  %hash = getelementptr inbounds %"class.icu_75::StringTrieBuilder::Node", ptr %this1, i32 0, i32 1
  %0 = load i32, ptr %hash, align 8
  ret i32 %0
}

; Function Attrs: mustprogress nounwind uwtable
define linkonce_odr void @_ZN6icu_7517StringTrieBuilder9ValueNodeD2Ev(ptr noundef nonnull align 8 dereferenceable(24) %this) unnamed_addr #1 comdat align 2 {
entry:
  %this.addr = alloca ptr, align 8
  store ptr %this, ptr %this.addr, align 8
  %this1 = load ptr, ptr %this.addr, align 8
  call void @_ZN6icu_7517StringTrieBuilder4NodeD2Ev(ptr noundef nonnull align 8 dereferenceable(16) %this1) #8
  ret void
}

; Function Attrs: mustprogress uwtable
define linkonce_odr void @_ZN6icu_7517StringTrieBuilder9ValueNodeC2Ei(ptr noundef nonnull align 8 dereferenceable(24) %this, i32 noundef %initialHash) unnamed_addr #0 comdat align 2 {
entry:
  %this.addr = alloca ptr, align 8
  %initialHash.addr = alloca i32, align 4
  store ptr %this, ptr %this.addr, align 8
  store i32 %initialHash, ptr %initialHash.addr, align 4
  %this1 = load ptr, ptr %this.addr, align 8
  %0 = load i32, ptr %initialHash.addr, align 4
  call void @_ZN6icu_7517StringTrieBuilder4NodeC2Ei(ptr noundef nonnull align 8 dereferenceable(16) %this1, i32 noundef %0)
  store ptr getelementptr inbounds ({ [8 x ptr] }, ptr @_ZTVN6icu_7517StringTrieBuilder9ValueNodeE, i32 0, i32 0, i32 2), ptr %this1, align 8
  %hasValue = getelementptr inbounds %"class.icu_75::StringTrieBuilder::ValueNode", ptr %this1, i32 0, i32 1
  store i8 0, ptr %hasValue, align 8
  %value = getelementptr inbounds %"class.icu_75::StringTrieBuilder::ValueNode", ptr %this1, i32 0, i32 2
  store i32 0, ptr %value, align 4
  ret void
}

; Function Attrs: mustprogress uwtable
define linkonce_odr noundef i32 @_ZN6icu_7517StringTrieBuilder4Node8hashCodeEPKS1_(ptr noundef %node) #0 comdat align 2 {
entry:
  %node.addr = alloca ptr, align 8
  store ptr %node, ptr %node.addr, align 8
  %0 = load ptr, ptr %node.addr, align 8
  %cmp = icmp eq ptr %0, null
  br i1 %cmp, label %cond.true, label %cond.false

cond.true:                                        ; preds = %entry
  br label %cond.end

cond.false:                                       ; preds = %entry
  %1 = load ptr, ptr %node.addr, align 8
  %call = call noundef i32 @_ZNK6icu_7517StringTrieBuilder4Node8hashCodeEv(ptr noundef nonnull align 8 dereferenceable(16) %1)
  br label %cond.end

cond.end:                                         ; preds = %cond.false, %cond.true
  %cond = phi i32 [ 0, %cond.true ], [ %call, %cond.false ]
  ret i32 %cond
}

; Function Attrs: mustprogress nounwind uwtable
define linkonce_odr void @_ZN6icu_7517StringTrieBuilder15LinearMatchNodeD2Ev(ptr noundef nonnull align 8 dereferenceable(40) %this) unnamed_addr #1 comdat align 2 {
entry:
  %this.addr = alloca ptr, align 8
  store ptr %this, ptr %this.addr, align 8
  %this1 = load ptr, ptr %this.addr, align 8
  call void @_ZN6icu_7517StringTrieBuilder9ValueNodeD2Ev(ptr noundef nonnull align 8 dereferenceable(24) %this1) #8
  ret void
}

; Function Attrs: mustprogress uwtable
define linkonce_odr void @_ZN6icu_7517StringTrieBuilder15LinearMatchNodeC2EiPNS0_4NodeE(ptr noundef nonnull align 8 dereferenceable(40) %this, i32 noundef %len, ptr noundef %nextNode) unnamed_addr #0 comdat align 2 {
entry:
  %this.addr = alloca ptr, align 8
  %len.addr = alloca i32, align 4
  %nextNode.addr = alloca ptr, align 8
  store ptr %this, ptr %this.addr, align 8
  store i32 %len, ptr %len.addr, align 4
  store ptr %nextNode, ptr %nextNode.addr, align 8
  %this1 = load ptr, ptr %this.addr, align 8
  %0 = load i32, ptr %len.addr, align 4
  %add = add i32 124151391, %0
  %mul = mul i32 %add, 37
  %1 = load ptr, ptr %nextNode.addr, align 8
  %call = call noundef i32 @_ZN6icu_7517StringTrieBuilder4Node8hashCodeEPKS1_(ptr noundef %1)
  %add2 = add i32 %mul, %call
  call void @_ZN6icu_7517StringTrieBuilder9ValueNodeC2Ei(ptr noundef nonnull align 8 dereferenceable(24) %this1, i32 noundef %add2)
  store ptr getelementptr inbounds ({ [8 x ptr] }, ptr @_ZTVN6icu_7517StringTrieBuilder15LinearMatchNodeE, i32 0, i32 0, i32 2), ptr %this1, align 8
  %length = getelementptr inbounds %"class.icu_75::StringTrieBuilder::LinearMatchNode", ptr %this1, i32 0, i32 1
  %2 = load i32, ptr %len.addr, align 4
  store i32 %2, ptr %length, align 8
  %next = getelementptr inbounds %"class.icu_75::StringTrieBuilder::LinearMatchNode", ptr %this1, i32 0, i32 2
  %3 = load ptr, ptr %nextNode.addr, align 8
  store ptr %3, ptr %next, align 8
  ret void
}

; Function Attrs: mustprogress uwtable
define void @_ZN6icu_7517UCharsTrieBuilder18UCTLinearMatchNodeC2EPKDsiPNS_17StringTrieBuilder4NodeE(ptr noundef nonnull align 8 dereferenceable(48) %this, ptr noundef %units, i32 noundef %len, ptr noundef %nextNode) unnamed_addr #0 align 2 personality ptr @__gxx_personality_v0 {
entry:
  %this.addr = alloca ptr, align 8
  %units.addr = alloca ptr, align 8
  %len.addr = alloca i32, align 4
  %nextNode.addr = alloca ptr, align 8
  %exn.slot = alloca ptr, align 8
  %ehselector.slot = alloca i32, align 4
  store ptr %this, ptr %this.addr, align 8
  store ptr %units, ptr %units.addr, align 8
  store i32 %len, ptr %len.addr, align 4
  store ptr %nextNode, ptr %nextNode.addr, align 8
  %this1 = load ptr, ptr %this.addr, align 8
  %0 = load i32, ptr %len.addr, align 4
  %1 = load ptr, ptr %nextNode.addr, align 8
  call void @_ZN6icu_7517StringTrieBuilder15LinearMatchNodeC2EiPNS0_4NodeE(ptr noundef nonnull align 8 dereferenceable(40) %this1, i32 noundef %0, ptr noundef %1)
  store ptr getelementptr inbounds ({ [8 x ptr] }, ptr @_ZTVN6icu_7517UCharsTrieBuilder18UCTLinearMatchNodeE, i32 0, i32 0, i32 2), ptr %this1, align 8
  %s = getelementptr inbounds %"class.icu_75::UCharsTrieBuilder::UCTLinearMatchNode", ptr %this1, i32 0, i32 1
  %2 = load ptr, ptr %units.addr, align 8
  store ptr %2, ptr %s, align 8
  %hash = getelementptr inbounds %"class.icu_75::StringTrieBuilder::Node", ptr %this1, i32 0, i32 1
  %3 = load i32, ptr %hash, align 8
  %mul = mul i32 %3, 37
  %4 = load ptr, ptr %units.addr, align 8
  %5 = load i32, ptr %len.addr, align 4
  %call = invoke i32 @ustr_hashUCharsN_75(ptr noundef %4, i32 noundef %5)
          to label %invoke.cont unwind label %lpad

invoke.cont:                                      ; preds = %entry
  %add = add i32 %mul, %call
  %hash2 = getelementptr inbounds %"class.icu_75::StringTrieBuilder::Node", ptr %this1, i32 0, i32 1
  store i32 %add, ptr %hash2, align 8
  ret void

lpad:                                             ; preds = %entry
  %6 = landingpad { ptr, i32 }
          cleanup
  %7 = extractvalue { ptr, i32 } %6, 0
  store ptr %7, ptr %exn.slot, align 8
  %8 = extractvalue { ptr, i32 } %6, 1
  store i32 %8, ptr %ehselector.slot, align 4
  call void @_ZN6icu_7517StringTrieBuilder15LinearMatchNodeD2Ev(ptr noundef nonnull align 8 dereferenceable(40) %this1) #8
  br label %eh.resume

eh.resume:                                        ; preds = %lpad
  %exn = load ptr, ptr %exn.slot, align 8
  %sel = load i32, ptr %ehselector.slot, align 4
  %lpad.val = insertvalue { ptr, i32 } poison, ptr %exn, 0
  %lpad.val3 = insertvalue { ptr, i32 } %lpad.val, i32 %sel, 1
  resume { ptr, i32 } %lpad.val3
}