; Function Attrs: mustprogress uwtable
define void @_ZN6icu_7517UCharsTrieBuilder18UCTLinearMatchNodeC2EPKDsiPNS_17StringTrieBuilder4NodeE(ptr noundef nonnull align 8 dereferenceable(48) %this, ptr noundef %units, i32 noundef %len, ptr noundef %nextNode) unnamed_addr #0 align 2 personality ptr @__gxx_personality_v0 {
entry:
  %cmp.i.i = icmp eq ptr %nextNode, null
  br i1 %cmp.i.i, label %_ZN6icu_7517StringTrieBuilder15LinearMatchNodeC2EiPNS0_4NodeE.exit, label %cond.false.i.i

cond.false.i.i:                                   ; preds = %entry
  %hash.i.i.i = getelementptr inbounds i8, ptr %nextNode, i64 8
  %0 = load i32, ptr %hash.i.i.i, align 8
  br label %_ZN6icu_7517StringTrieBuilder15LinearMatchNodeC2EiPNS0_4NodeE.exit

_ZN6icu_7517StringTrieBuilder15LinearMatchNodeC2EiPNS0_4NodeE.exit: ; preds = %entry, %cond.false.i.i
  %cond.i.i = phi i32 [ %0, %cond.false.i.i ], [ 0, %entry ]
  %1 = mul i32 %len, 37
  %mul.i = add i32 %1, 298634171
  %add2.i = add i32 %mul.i, %cond.i.i
  %hash.i.i3.i = getelementptr inbounds i8, ptr %this, i64 8
  store i32 %add2.i, ptr %hash.i.i3.i, align 8
  %offset.i.i.i = getelementptr inbounds i8, ptr %this, i64 12
  store i32 0, ptr %offset.i.i.i, align 4
  %hasValue.i.i = getelementptr inbounds i8, ptr %this, i64 16
  store i8 0, ptr %hasValue.i.i, align 8
  %value.i.i = getelementptr inbounds i8, ptr %this, i64 20
  store i32 0, ptr %value.i.i, align 4
  %length.i = getelementptr inbounds i8, ptr %this, i64 24
  store i32 %len, ptr %length.i, align 8
  %next.i = getelementptr inbounds i8, ptr %this, i64 32
  store ptr %nextNode, ptr %next.i, align 8
  store ptr getelementptr inbounds ({ [8 x ptr] }, ptr @_ZTVN6icu_7517UCharsTrieBuilder18UCTLinearMatchNodeE, i64 0, i32 0, i64 2), ptr %this, align 8
  %s = getelementptr inbounds i8, ptr %this, i64 40
  store ptr %units, ptr %s, align 8
  %call = invoke i32 @ustr_hashUCharsN_75(ptr noundef %units, i32 noundef %len)
          to label %invoke.cont unwind label %lpad

invoke.cont:                                      ; preds = %_ZN6icu_7517StringTrieBuilder15LinearMatchNodeC2EiPNS0_4NodeE.exit
  %mul = mul i32 %add2.i, 37
  %add = add i32 %call, %mul
  store i32 %add, ptr %hash.i.i3.i, align 8
  ret void

lpad:                                             ; preds = %_ZN6icu_7517StringTrieBuilder15LinearMatchNodeC2EiPNS0_4NodeE.exit
  %2 = landingpad { ptr, i32 }
          cleanup
  tail call void @_ZN6icu_757UObjectD2Ev(ptr noundef nonnull align 8 dereferenceable(8) %this) #11
  resume { ptr, i32 } %2
}